SF:C:\work\Sample\code\backend\src\common\db.rs
FN:12,_RINvNtNtCslypyrQYUkoG_7backend6common2db15select_internalNtNtNtNtB6_8features5login10repository10UserRecordNCNvXs0_BV_NtBV_20SqliteUserRepositoryNtBV_14UserRepository16find_by_username0NCB1J_s_0EB6_
FN:12,_RINvNtNtCslypyrQYUkoG_7backend6common2db15select_internalNtNtNtNtB6_8features5login10repository10UserRecordNCNvXs_NtNtBX_7handler5testsNtB1O_18TestUserRepositoryNtBV_14UserRepository16find_by_username0FG_RL0_eEuEB6_
FN:12,_RINvNtNtCslypyrQYUkoG_7backend6common2db15select_internalTxNtNtCsdPcZrWPtBQZ_5alloc6string6StringENCNvNtB2_5testss_24test_select_error_branch0FG_RL0_eEuEB6_
FN:12,_RINvNtNtCslypyrQYUkoG_7backend6common2db15select_internalTxNtNtCsdPcZrWPtBQZ_5alloc6string6StringENCNvNtB2_5testss_32test_select_and_select_with_hook0FG_RL0_eEuEB6_
FN:12,_RINvNtNtCslypyrQYUkoG_7backend6common2db15select_internalTxNtNtCsdPcZrWPtBQZ_5alloc6string6StringENCNvNtB2_5testss_32test_select_and_select_with_hooks_0NCB1A_s0_0EB6_
FN:12,_RINvNtNtCslypyrQYUkoG_7backend6common2db15select_internalTxNtNtCsdPcZrWPtBQZ_5alloc6string6StringENCNvNtB2_5testss_34test_select_with_hook_error_branch0NCB1A_s_0EB6_
FN:51,_RINvNtNtCslypyrQYUkoG_7backend6common2db16select_with_hookNtNtNtNtB6_8features5login10repository10UserRecordNCNvXs0_BW_NtBW_20SqliteUserRepositoryNtBW_14UserRepository16find_by_username0NCB1K_s_0EB6_
FN:51,_RINvNtNtCslypyrQYUkoG_7backend6common2db16select_with_hookTxNtNtCsdPcZrWPtBQZ_5alloc6string6StringENCNvNtB2_5testss_32test_select_and_select_with_hooks_0NCB1B_s0_0EB6_
FN:51,_RINvNtNtCslypyrQYUkoG_7backend6common2db16select_with_hookTxNtNtCsdPcZrWPtBQZ_5alloc6string6StringENCNvNtB2_5testss_34test_select_with_hook_error_branch0NCB1B_s_0EB6_
FN:36,_RINvNtNtCslypyrQYUkoG_7backend6common2db6selectNtNtNtNtB6_8features5login10repository10UserRecordNCNvXs_NtNtBN_7handler5testsNtB1E_18TestUserRepositoryNtBL_14UserRepository16find_by_username0EB6_
FN:36,_RINvNtNtCslypyrQYUkoG_7backend6common2db6selectTxNtNtCsdPcZrWPtBQZ_5alloc6string6StringENCNvNtB2_5testss_24test_select_error_branch0EB6_
FN:36,_RINvNtNtCslypyrQYUkoG_7backend6common2db6selectTxNtNtCsdPcZrWPtBQZ_5alloc6string6StringENCNvNtB2_5testss_32test_select_and_select_with_hook0EB6_
FN:139,_RNCNvNtNtNtCslypyrQYUkoG_7backend6common2db5testss_24test_select_error_branch0B9_
FN:101,_RNCNvNtNtNtCslypyrQYUkoG_7backend6common2db5testss_32test_select_and_select_with_hook0B9_
FN:114,_RNCNvNtNtNtCslypyrQYUkoG_7backend6common2db5testss_32test_select_and_select_with_hooks0_0B9_
FN:117,_RNCNvNtNtNtCslypyrQYUkoG_7backend6common2db5testss_32test_select_and_select_with_hooks1_0B9_
FN:113,_RNCNvNtNtNtCslypyrQYUkoG_7backend6common2db5testss_32test_select_and_select_with_hooks_0B9_
FN:153,_RNCNvNtNtNtCslypyrQYUkoG_7backend6common2db5testss_34test_select_with_hook_error_branch0B9_
FN:157,_RNCNvNtNtNtCslypyrQYUkoG_7backend6common2db5testss_34test_select_with_hook_error_branchs0_0B9_
FN:154,_RNCNvNtNtNtCslypyrQYUkoG_7backend6common2db5testss_34test_select_with_hook_error_branchs_0B9_
FN:80,_RNvNtNtNtCslypyrQYUkoG_7backend6common2db5tests10setup_conn
FN:121,_RNvNtNtNtCslypyrQYUkoG_7backend6common2db5testss_12test_execute
FN:132,_RNvNtNtNtCslypyrQYUkoG_7backend6common2db5testss_24test_select_error_branch
FN:161,_RNvNtNtNtCslypyrQYUkoG_7backend6common2db5testss_25test_execute_error_branch
FN:94,_RNvNtNtNtCslypyrQYUkoG_7backend6common2db5testss_32test_select_and_select_with_hook
FN:145,_RNvNtNtNtCslypyrQYUkoG_7backend6common2db5testss_34test_select_with_hook_error_branch
FN:3,_RNvNtNtCslypyrQYUkoG_7backend6common2db14get_connection
FN:66,_RNvNtNtCslypyrQYUkoG_7backend6common2db7execute
FNDA:7,_RINvNtNtCslypyrQYUkoG_7backend6common2db15select_internalNtNtNtNtB6_8features5login10repository10UserRecordNCNvXs0_BV_NtBV_20SqliteUserRepositoryNtBV_14UserRepository16find_by_username0NCB1J_s_0EB6_
FNDA:4,_RINvNtNtCslypyrQYUkoG_7backend6common2db15select_internalNtNtNtNtB6_8features5login10repository10UserRecordNCNvXs_NtNtBX_7handler5testsNtB1O_18TestUserRepositoryNtBV_14UserRepository16find_by_username0FG_RL0_eEuEB6_
FNDA:1,_RINvNtNtCslypyrQYUkoG_7backend6common2db15select_internalTxNtNtCsdPcZrWPtBQZ_5alloc6string6StringENCNvNtB2_5testss_24test_select_error_branch0FG_RL0_eEuEB6_
FNDA:1,_RINvNtNtCslypyrQYUkoG_7backend6common2db15select_internalTxNtNtCsdPcZrWPtBQZ_5alloc6string6StringENCNvNtB2_5testss_32test_select_and_select_with_hook0FG_RL0_eEuEB6_
FNDA:1,_RINvNtNtCslypyrQYUkoG_7backend6common2db15select_internalTxNtNtCsdPcZrWPtBQZ_5alloc6string6StringENCNvNtB2_5testss_32test_select_and_select_with_hooks_0NCB1A_s0_0EB6_
FNDA:1,_RINvNtNtCslypyrQYUkoG_7backend6common2db15select_internalTxNtNtCsdPcZrWPtBQZ_5alloc6string6StringENCNvNtB2_5testss_34test_select_with_hook_error_branch0NCB1A_s_0EB6_
FNDA:7,_RINvNtNtCslypyrQYUkoG_7backend6common2db16select_with_hookNtNtNtNtB6_8features5login10repository10UserRecordNCNvXs0_BW_NtBW_20SqliteUserRepositoryNtBW_14UserRepository16find_by_username0NCB1K_s_0EB6_
FNDA:1,_RINvNtNtCslypyrQYUkoG_7backend6common2db16select_with_hookTxNtNtCsdPcZrWPtBQZ_5alloc6string6StringENCNvNtB2_5testss_32test_select_and_select_with_hooks_0NCB1B_s0_0EB6_
FNDA:1,_RINvNtNtCslypyrQYUkoG_7backend6common2db16select_with_hookTxNtNtCsdPcZrWPtBQZ_5alloc6string6StringENCNvNtB2_5testss_34test_select_with_hook_error_branch0NCB1B_s_0EB6_
FNDA:4,_RINvNtNtCslypyrQYUkoG_7backend6common2db6selectNtNtNtNtB6_8features5login10repository10UserRecordNCNvXs_NtNtBN_7handler5testsNtB1E_18TestUserRepositoryNtBL_14UserRepository16find_by_username0EB6_
FNDA:1,_RINvNtNtCslypyrQYUkoG_7backend6common2db6selectTxNtNtCsdPcZrWPtBQZ_5alloc6string6StringENCNvNtB2_5testss_24test_select_error_branch0EB6_
FNDA:1,_RINvNtNtCslypyrQYUkoG_7backend6common2db6selectTxNtNtCsdPcZrWPtBQZ_5alloc6string6StringENCNvNtB2_5testss_32test_select_and_select_with_hook0EB6_
FNDA:0,_RNCNvNtNtNtCslypyrQYUkoG_7backend6common2db5testss_24test_select_error_branch0B9_
FNDA:1,_RNCNvNtNtNtCslypyrQYUkoG_7backend6common2db5testss_32test_select_and_select_with_hook0B9_
FNDA:1,_RNCNvNtNtNtCslypyrQYUkoG_7backend6common2db5testss_32test_select_and_select_with_hooks0_0B9_
FNDA:1,_RNCNvNtNtNtCslypyrQYUkoG_7backend6common2db5testss_32test_select_and_select_with_hooks1_0B9_
FNDA:1,_RNCNvNtNtNtCslypyrQYUkoG_7backend6common2db5testss_32test_select_and_select_with_hooks_0B9_
FNDA:0,_RNCNvNtNtNtCslypyrQYUkoG_7backend6common2db5testss_34test_select_with_hook_error_branch0B9_
FNDA:1,_RNCNvNtNtNtCslypyrQYUkoG_7backend6common2db5testss_34test_select_with_hook_error_branchs0_0B9_
FNDA:1,_RNCNvNtNtNtCslypyrQYUkoG_7backend6common2db5testss_34test_select_with_hook_error_branchs_0B9_
FNDA:2,_RNvNtNtNtCslypyrQYUkoG_7backend6common2db5tests10setup_conn
FNDA:1,_RNvNtNtNtCslypyrQYUkoG_7backend6common2db5testss_12test_execute
FNDA:1,_RNvNtNtNtCslypyrQYUkoG_7backend6common2db5testss_24test_select_error_branch
FNDA:1,_RNvNtNtNtCslypyrQYUkoG_7backend6common2db5testss_25test_execute_error_branch
FNDA:1,_RNvNtNtNtCslypyrQYUkoG_7backend6common2db5testss_32test_select_and_select_with_hook
FNDA:1,_RNvNtNtNtCslypyrQYUkoG_7backend6common2db5testss_34test_select_with_hook_error_branch
FNDA:13,_RNvNtNtCslypyrQYUkoG_7backend6common2db14get_connection
FNDA:2,_RNvNtNtCslypyrQYUkoG_7backend6common2db7execute
FNF:19
FNH:17
DA:3,13
DA:4,13
DA:5,13
DA:6,13
DA:7,13
DA:8,13
DA:9,13
DA:10,13
DA:12,15
DA:13,15
DA:14,15
DA:15,15
DA:16,15
DA:17,15
DA:18,15
DA:19,15
DA:20,15
DA:21,15
DA:22,15
DA:23,15
DA:24,9
DA:25,9
DA:26,15
DA:27,12
DA:28,12
DA:29,21
DA:30,9
DA:32,12
DA:33,15
DA:36,6
DA:37,6
DA:38,6
DA:39,6
DA:40,6
DA:41,6
DA:42,6
DA:43,6
DA:44,6
DA:45,6
DA:46,6
DA:51,9
DA:52,9
DA:53,9
DA:54,9
DA:55,9
DA:56,9
DA:57,9
DA:58,9
DA:59,9
DA:60,9
DA:61,9
DA:62,9
DA:63,9
DA:66,2
DA:67,2
DA:68,2
DA:69,2
DA:70,2
DA:71,2
DA:72,2
DA:80,2
DA:81,2
DA:82,2
DA:83,2
DA:84,2
DA:85,2
DA:86,2
DA:87,2
DA:88,2
DA:89,2
DA:90,2
DA:91,2
DA:94,1
DA:95,1
DA:96,1
DA:97,1
DA:98,1
DA:99,1
DA:100,1
DA:101,1
DA:102,1
DA:103,1
DA:104,1
DA:107,1
DA:108,1
DA:109,1
DA:110,1
DA:111,1
DA:112,1
DA:113,1
DA:114,1
DA:115,1
DA:116,1
DA:117,1
DA:118,1
DA:121,1
DA:122,1
DA:123,1
DA:124,1
DA:125,1
DA:126,1
DA:127,1
DA:128,1
DA:129,1
DA:132,1
DA:133,1
DA:134,1
DA:135,1
DA:136,1
DA:137,1
DA:138,1
DA:139,1
DA:140,1
DA:141,1
DA:142,1
DA:145,1
DA:146,1
DA:147,1
DA:148,1
DA:149,1
DA:150,1
DA:151,1
DA:152,1
DA:153,1
DA:154,1
DA:155,1
DA:156,1
DA:157,1
DA:158,1
DA:161,1
DA:162,1
DA:163,1
DA:164,1
DA:165,1
DA:166,1
DA:167,1
DA:168,1
DA:169,1
DA:170,1
BRF:0
BRH:0
LF:147
LH:145
end_of_record
SF:C:\work\Sample\code\backend\src\features\login\handler.rs
FN:22,_RNCNvXs_NtNtNtCslypyrQYUkoG_7backend8features5login7handlerNtB6_15AuthServiceImplNtNtNtNtB8_5proto4auth19auth_service_server11AuthService5login0Bc_
FN:124,_RNvNtNtNtNtCslypyrQYUkoG_7backend8features5login7handler5tests15setup_test_repo
FN:232,_RNvNtNtNtNtCslypyrQYUkoG_7backend8features5login7handler5testss_15test_main_dummy
FN:143,_RNvNtNtNtNtCslypyrQYUkoG_7backend8features5login7handler5testss_16test_login_cases
FN:184,_RNvNtNtNtNtCslypyrQYUkoG_7backend8features5login7handler5testss_26test_auth_service_impl_new
FN:163,_RNvNtNtNtNtCslypyrQYUkoG_7backend8features5login7handler5testss_27test_clone_and_error_branch
FN:239,_RNvNtNtNtNtCslypyrQYUkoG_7backend8features5login7handler5testss_37test_auth_service_impl_login_db_error
FN:191,_RNvNtNtNtNtCslypyrQYUkoG_7backend8features5login7handler5testss_45test_auth_service_impl_login_success_and_fail
FN:71,_RNvXNtNtNtNtCslypyrQYUkoG_7backend8features5login7handler5testsNtB2_18TestUserRepositoryNtNtCs4M45Py2ANNS_4core5clone5Clone5clone
FN:121,_RNvXs0_NtNtNtNtCslypyrQYUkoG_7backend8features5login7handler5testsNtB5_19TestAuthServiceImplNtNtNtNtB9_5proto4auth19auth_service_server11AuthService5login
FN:76,_RNvXs_NtNtNtNtCslypyrQYUkoG_7backend8features5login7handler5testsNtB4_18TestUserRepositoryNtNtB8_10repository14UserRepository16find_by_username
FN:12,_RNvMNtNtNtCslypyrQYUkoG_7backend8features5login7handlerNtB2_15AuthServiceImpl3new
FN:52,_RNvXs_NtNtNtCslypyrQYUkoG_7backend8features5login7handlerNtB4_15AuthServiceImplNtNtNtNtB6_5proto4auth19auth_service_server11AuthService5login
FN:145,_RNCNCNvNtNtNtNtCslypyrQYUkoG_7backend8features5login7handler5testss_16test_login_cases00Bd_
FN:169,_RNCNCNvNtNtNtNtCslypyrQYUkoG_7backend8features5login7handler5testss_27test_clone_and_error_branch00Bd_
FN:143,_RNCNvNtNtNtNtCslypyrQYUkoG_7backend8features5login7handler5testss_16test_login_cases0Bb_
FN:163,_RNCNvNtNtNtNtCslypyrQYUkoG_7backend8features5login7handler5testss_27test_clone_and_error_branch0Bb_
FN:239,_RNCNvNtNtNtNtCslypyrQYUkoG_7backend8features5login7handler5testss_37test_auth_service_impl_login_db_error0Bb_
FN:191,_RNCNvNtNtNtNtCslypyrQYUkoG_7backend8features5login7handler5testss_45test_auth_service_impl_login_success_and_fail0Bb_
FN:106,_RNCNvXs0_NtNtNtNtCslypyrQYUkoG_7backend8features5login7handler5testsNtB7_19TestAuthServiceImplNtNtNtNtBb_5proto4auth19auth_service_server11AuthService5login0Bf_
FN:83,_RNCNvXs_NtNtNtNtCslypyrQYUkoG_7backend8features5login7handler5testsNtB6_18TestUserRepositoryNtNtBa_10repository14UserRepository16find_by_username0Be_
FNDA:3,_RNCNvXs_NtNtNtCslypyrQYUkoG_7backend8features5login7handlerNtB6_15AuthServiceImplNtNtNtNtB8_5proto4auth19auth_service_server11AuthService5login0Bc_
FNDA:2,_RNvNtNtNtNtCslypyrQYUkoG_7backend8features5login7handler5tests15setup_test_repo
FNDA:1,_RNvNtNtNtNtCslypyrQYUkoG_7backend8features5login7handler5testss_15test_main_dummy
FNDA:1,_RNvNtNtNtNtCslypyrQYUkoG_7backend8features5login7handler5testss_16test_login_cases
FNDA:1,_RNvNtNtNtNtCslypyrQYUkoG_7backend8features5login7handler5testss_26test_auth_service_impl_new
FNDA:1,_RNvNtNtNtNtCslypyrQYUkoG_7backend8features5login7handler5testss_27test_clone_and_error_branch
FNDA:1,_RNvNtNtNtNtCslypyrQYUkoG_7backend8features5login7handler5testss_37test_auth_service_impl_login_db_error
FNDA:1,_RNvNtNtNtNtCslypyrQYUkoG_7backend8features5login7handler5testss_45test_auth_service_impl_login_success_and_fail
FNDA:1,_RNvXNtNtNtNtCslypyrQYUkoG_7backend8features5login7handler5testsNtB2_18TestUserRepositoryNtNtCs4M45Py2ANNS_4core5clone5Clone5clone
FNDA:4,_RNvXs0_NtNtNtNtCslypyrQYUkoG_7backend8features5login7handler5testsNtB5_19TestAuthServiceImplNtNtNtNtB9_5proto4auth19auth_service_server11AuthService5login
FNDA:4,_RNvXs_NtNtNtNtCslypyrQYUkoG_7backend8features5login7handler5testsNtB4_18TestUserRepositoryNtNtB8_10repository14UserRepository16find_by_username
FNDA:5,_RNvMNtNtNtCslypyrQYUkoG_7backend8features5login7handlerNtB2_15AuthServiceImpl3new
FNDA:3,_RNvXs_NtNtNtCslypyrQYUkoG_7backend8features5login7handlerNtB4_15AuthServiceImplNtNtNtNtB6_5proto4auth19auth_service_server11AuthService5login
FNDA:8,_RNCNCNvNtNtNtNtCslypyrQYUkoG_7backend8features5login7handler5testss_16test_login_cases00Bd_
FNDA:2,_RNCNCNvNtNtNtNtCslypyrQYUkoG_7backend8features5login7handler5testss_27test_clone_and_error_branch00Bd_
FNDA:1,_RNCNvNtNtNtNtCslypyrQYUkoG_7backend8features5login7handler5testss_16test_login_cases0Bb_
FNDA:1,_RNCNvNtNtNtNtCslypyrQYUkoG_7backend8features5login7handler5testss_27test_clone_and_error_branch0Bb_
FNDA:1,_RNCNvNtNtNtNtCslypyrQYUkoG_7backend8features5login7handler5testss_37test_auth_service_impl_login_db_error0Bb_
FNDA:1,_RNCNvNtNtNtNtCslypyrQYUkoG_7backend8features5login7handler5testss_45test_auth_service_impl_login_success_and_fail0Bb_
FNDA:4,_RNCNvXs0_NtNtNtNtCslypyrQYUkoG_7backend8features5login7handler5testsNtB7_19TestAuthServiceImplNtNtNtNtBb_5proto4auth19auth_service_server11AuthService5login0Bf_
FNDA:2,_RNCNvXs_NtNtNtNtCslypyrQYUkoG_7backend8features5login7handler5testsNtB6_18TestUserRepositoryNtNtBa_10repository14UserRepository16find_by_username0Be_
FNF:21
FNH:21
DA:12,5
DA:13,5
DA:14,5
DA:22,3
DA:23,3
DA:24,3
DA:25,3
DA:26,3
DA:27,3
DA:28,3
DA:30,3
DA:31,1
DA:32,1
DA:33,1
DA:35,2
DA:36,2
DA:37,2
DA:41,1
DA:42,1
DA:43,1
DA:44,1
DA:45,1
DA:46,1
DA:47,1
DA:48,1
DA:49,1
DA:50,1
DA:51,1
DA:52,6
DA:71,1
DA:72,1
DA:73,1
DA:76,4
DA:77,4
DA:78,4
DA:79,4
DA:80,4
DA:81,4
DA:82,4
DA:83,4
DA:84,2
DA:85,2
DA:86,2
DA:87,2
DA:88,4
DA:89,4
DA:90,4
DA:91,2
DA:93,2
DA:95,4
DA:106,4
DA:107,4
DA:108,4
DA:109,1
DA:110,3
DA:112,1
DA:113,1
DA:114,1
DA:115,1
DA:116,1
DA:117,1
DA:118,1
DA:119,1
DA:120,1
DA:121,8
DA:124,2
DA:125,2
DA:126,2
DA:127,2
DA:128,2
DA:129,2
DA:130,2
DA:131,2
DA:132,2
DA:133,2
DA:134,2
DA:135,2
DA:136,2
DA:137,2
DA:138,2
DA:139,2
DA:140,2
DA:143,1
DA:144,1
DA:145,8
DA:146,1
DA:147,1
DA:148,1
DA:149,1
DA:150,1
DA:151,1
DA:152,4
DA:153,3
DA:154,3
DA:155,3
DA:156,3
DA:157,3
DA:158,3
DA:159,1
DA:160,1
DA:163,1
DA:164,1
DA:165,1
DA:166,1
DA:167,1
DA:168,1
DA:169,2
DA:170,1
DA:171,1
DA:172,1
DA:173,1
DA:174,1
DA:175,1
DA:176,1
DA:177,1
DA:178,1
DA:179,1
DA:180,1
DA:184,1
DA:185,1
DA:186,1
DA:187,1
DA:191,1
DA:192,1
DA:193,1
DA:194,1
DA:195,1
DA:196,1
DA:197,1
DA:198,1
DA:199,1
DA:200,1
DA:201,1
DA:202,1
DA:203,1
DA:204,1
DA:205,1
DA:206,1
DA:207,1
DA:208,1
DA:209,1
DA:210,1
DA:211,1
DA:212,1
DA:213,1
DA:214,1
DA:215,1
DA:216,1
DA:217,1
DA:218,1
DA:219,1
DA:220,1
DA:221,1
DA:222,1
DA:223,1
DA:224,1
DA:225,1
DA:226,1
DA:227,1
DA:228,1
DA:232,1
DA:233,1
DA:234,1
DA:235,1
DA:239,1
DA:240,1
DA:241,1
DA:242,1
DA:243,1
DA:244,1
DA:245,1
DA:246,1
DA:247,1
DA:248,1
DA:249,1
DA:250,1
BRF:0
BRH:0
LF:260
LH:258
end_of_record
SF:C:\work\Sample\code\backend\src\features\login\proto\auth.rs
FN:19,_RINvNvXsf_NtNtNtNtCslypyrQYUkoG_7backend8features5login5proto4authNtB8_4UserNtNtCs4M45Py2ANNS_4core3fmt5Debug3fmt13ScalarWrapperRxEBg_
FN:19,_RINvNvXsf_NtNtNtNtCslypyrQYUkoG_7backend8features5login5proto4authNtB8_4UserNtNtCs4M45Py2ANNS_4core3fmt5Debug3fmts0_13ScalarWrapperRNtNtCsdPcZrWPtBQZ_5alloc6string6StringEBg_
FN:19,_RINvNvXsf_NtNtNtNtCslypyrQYUkoG_7backend8features5login5proto4authNtB8_4UserNtNtCs4M45Py2ANNS_4core3fmt5Debug3fmts_13ScalarWrapperRNtNtCsdPcZrWPtBQZ_5alloc6string6StringEBg_
FN:39,_RINvMNtNtNtNtNtCslypyrQYUkoG_7backend8features5login5proto4auth19auth_service_clientINtB3_17AuthServiceClientNtNtNtCsjdrrDM8y1nq_5tonic9transport7channel7ChannelE7connectpEBd_
FN:169,_RINvMNtNtNtNtNtCslypyrQYUkoG_7backend8features5login5proto4auth19auth_service_serverINtB3_17AuthServiceServerpE16with_interceptorpEBd_
FN:63,_RINvMs_NtNtNtNtNtCslypyrQYUkoG_7backend8features5login5proto4auth19auth_service_clientINtB5_17AuthServiceClientpE16with_interceptorpEBf_
FN:113,_RINvMs_NtNtNtNtNtCslypyrQYUkoG_7backend8features5login5proto4auth19auth_service_clientINtB5_17AuthServiceClientpE5loginpEBf_
FN:3,_RINvNvXs3_NtNtNtNtCslypyrQYUkoG_7backend8features5login5proto4authNtB8_12LoginRequestNtNtCs4M45Py2ANNS_4core3fmt5Debug3fmt13ScalarWrapperpEBg_
FN:3,_RINvNvXs3_NtNtNtNtCslypyrQYUkoG_7backend8features5login5proto4authNtB8_12LoginRequestNtNtCs4M45Py2ANNS_4core3fmt5Debug3fmts_13ScalarWrapperpEBg_
FN:11,_RINvNvXs9_NtNtNtNtCslypyrQYUkoG_7backend8features5login5proto4authNtB8_13LoginResponseNtNtCs4M45Py2ANNS_4core3fmt5Debug3fmt13ScalarWrapperpEBg_
FN:43,_RNCINvMNtNtNtNtNtCslypyrQYUkoG_7backend8features5login5proto4auth19auth_service_clientINtB5_17AuthServiceClientNtNtNtCsjdrrDM8y1nq_5tonic9transport7channel7ChannelE7connectpE0Bf_
FN:116,_RNCINvMs_NtNtNtNtNtCslypyrQYUkoG_7backend8features5login5proto4auth19auth_service_clientINtB7_17AuthServiceClientpE5loginpE0Bh_
FN:3,_RNCINvXs1_NtNtNtNtCslypyrQYUkoG_7backend8features5login5proto4authNtB8_12LoginRequestNtNtCs6fErLjbU8QR_5prost7message7Message11merge_fieldpE0Bg_
FN:3,_RNCINvXs1_NtNtNtNtCslypyrQYUkoG_7backend8features5login5proto4authNtB8_12LoginRequestNtNtCs6fErLjbU8QR_5prost7message7Message11merge_fieldpEs_0Bg_
FN:11,_RNCINvXs7_NtNtNtNtCslypyrQYUkoG_7backend8features5login5proto4authNtB8_13LoginResponseNtNtCs6fErLjbU8QR_5prost7message7Message11merge_fieldpE0Bg_
FN:11,_RNCINvXs7_NtNtNtNtCslypyrQYUkoG_7backend8features5login5proto4authNtB8_13LoginResponseNtNtCs6fErLjbU8QR_5prost7message7Message11merge_fieldpEs_0Bg_
FN:19,_RNCINvXsd_NtNtNtNtCslypyrQYUkoG_7backend8features5login5proto4authNtB8_4UserNtNtCs6fErLjbU8QR_5prost7message7Message11merge_fieldpE0Bg_
FN:19,_RNCINvXsd_NtNtNtNtCslypyrQYUkoG_7backend8features5login5proto4authNtB8_4UserNtNtCs6fErLjbU8QR_5prost7message7Message11merge_fieldpEs0_0Bg_
FN:19,_RNCINvXsd_NtNtNtNtCslypyrQYUkoG_7backend8features5login5proto4authNtB8_4UserNtNtCs6fErLjbU8QR_5prost7message7Message11merge_fieldpEs_0Bg_
FN:120,_RNCNCINvMs_NtNtNtNtNtCslypyrQYUkoG_7backend8features5login5proto4auth19auth_service_clientINtB9_17AuthServiceClientpE5loginpE00Bj_
FN:251,_RNCNvXININtNtNtNtNtCslypyrQYUkoG_7backend8features5login5proto4auth19auth_service_servers_0ppEINtB7_17AuthServiceServerpEINtCs6eg6TmwSnRH_13tower_service7ServiceINtNtCskydy9tWmViu_4http7request7RequestpEE4call0Bh_
FN:270,_RNCNvXININtNtNtNtNtCslypyrQYUkoG_7backend8features5login5proto4auth19auth_service_servers_0ppEINtB7_17AuthServiceServerpEINtCs6eg6TmwSnRH_13tower_service7ServiceINtNtCskydy9tWmViu_4http7request7RequestpEE4calls_0Bh_
FN:240,_RNCNvXININvXs_NtNtNtNtNtCslypyrQYUkoG_7backend8features5login5proto4auth19auth_service_serverINtBc_17AuthServiceServerpEINtCs6eg6TmwSnRH_13tower_service7ServiceINtNtCskydy9tWmViu_4http7request7RequestpEE4call0pEINtB7_8LoginSvcpEINtNtNtCsjdrrDM8y1nq_5tonic6server7service12UnaryServiceNtBe_12LoginRequestE4call0Bm_
FN:11,_RNCNvXs7_NtNtNtNtCslypyrQYUkoG_7backend8features5login5proto4authNtB7_13LoginResponseNtNtCs6fErLjbU8QR_5prost7message7Message11encoded_len0Bf_
FN:186,_RNvMNtNtNtNtNtCslypyrQYUkoG_7backend8features5login5proto4auth19auth_service_serverINtB2_17AuthServiceServerpE15send_compressedBc_
FN:180,_RNvMNtNtNtNtNtCslypyrQYUkoG_7backend8features5login5proto4auth19auth_service_serverINtB2_17AuthServiceServerpE17accept_compressedBc_
FN:194,_RNvMNtNtNtNtNtCslypyrQYUkoG_7backend8features5login5proto4auth19auth_service_serverINtB2_17AuthServiceServerpE25max_decoding_message_sizeBc_
FN:202,_RNvMNtNtNtNtNtCslypyrQYUkoG_7backend8features5login5proto4auth19auth_service_serverINtB2_17AuthServiceServerpE25max_encoding_message_sizeBc_
FN:156,_RNvMNtNtNtNtNtCslypyrQYUkoG_7backend8features5login5proto4auth19auth_service_serverINtB2_17AuthServiceServerpE3newBc_
FN:159,_RNvMNtNtNtNtNtCslypyrQYUkoG_7backend8features5login5proto4auth19auth_service_serverINtB2_17AuthServiceServerpE8from_arcBc_
FN:59,_RNvMs_NtNtNtNtNtCslypyrQYUkoG_7backend8features5login5proto4auth19auth_service_clientINtB4_17AuthServiceClientpE11with_originBe_
FN:87,_RNvMs_NtNtNtNtNtCslypyrQYUkoG_7backend8features5login5proto4auth19auth_service_clientINtB4_17AuthServiceClientpE15send_compressedBe_
FN:93,_RNvMs_NtNtNtNtNtCslypyrQYUkoG_7backend8features5login5proto4auth19auth_service_clientINtB4_17AuthServiceClientpE17accept_compressedBe_
FN:101,_RNvMs_NtNtNtNtNtCslypyrQYUkoG_7backend8features5login5proto4auth19auth_service_clientINtB4_17AuthServiceClientpE25max_decoding_message_sizeBe_
FN:109,_RNvMs_NtNtNtNtNtCslypyrQYUkoG_7backend8features5login5proto4auth19auth_service_clientINtB4_17AuthServiceClientpE25max_encoding_message_sizeBe_
FN:55,_RNvMs_NtNtNtNtNtCslypyrQYUkoG_7backend8features5login5proto4auth19auth_service_clientINtB4_17AuthServiceClientpE3newBe_
FN:285,_RNvXININtNtNtNtNtCslypyrQYUkoG_7backend8features5login5proto4auth19auth_service_servers0_0pEINtB5_17AuthServiceServerpENtNtCs4M45Py2ANNS_4core5clone5Clone5cloneBf_
FN:297,_RNvXININtNtNtNtNtCslypyrQYUkoG_7backend8features5login5proto4auth19auth_service_servers1_0pEINtB5_6__InnerpENtNtCs4M45Py2ANNS_4core5clone5Clone5cloneBf_
FN:302,_RNvXININtNtNtNtNtCslypyrQYUkoG_7backend8features5login5proto4auth19auth_service_servers2_0pEINtB5_6__InnerpENtNtCs4M45Py2ANNS_4core3fmt5Debug3fmtBf_
FN:216,_RNvXININtNtNtNtNtCslypyrQYUkoG_7backend8features5login5proto4auth19auth_service_servers_0ppEINtB5_17AuthServiceServerpEINtCs6eg6TmwSnRH_13tower_service7ServiceINtNtCskydy9tWmViu_4http7request7RequestpEE10poll_readyBf_
FN:222,_RNvXININtNtNtNtNtCslypyrQYUkoG_7backend8features5login5proto4auth19auth_service_servers_0ppEINtB5_17AuthServiceServerpEINtCs6eg6TmwSnRH_13tower_service7ServiceINtNtCskydy9tWmViu_4http7request7RequestpEE4callBf_
FN:235,_RNvXININvXs_NtNtNtNtNtCslypyrQYUkoG_7backend8features5login5proto4auth19auth_service_serverINtBa_17AuthServiceServerpEINtCs6eg6TmwSnRH_13tower_service7ServiceINtNtCskydy9tWmViu_4http7request7RequestpEE4call0pEINtB5_8LoginSvcpEINtNtNtCsjdrrDM8y1nq_5tonic6server7service12UnaryServiceNtBc_12LoginRequestE4callBk_
FN:3,_RNvXs1_NtNtNtNtCslypyrQYUkoG_7backend8features5login5proto4authNtB5_12LoginRequestNtNtCs6fErLjbU8QR_5prost7message7Message5clear
FN:3,_RNvXs2_NtNtNtNtCslypyrQYUkoG_7backend8features5login5proto4authNtB5_12LoginRequestNtNtCs4M45Py2ANNS_4core7default7Default7default
FN:11,_RNvXs7_NtNtNtNtCslypyrQYUkoG_7backend8features5login5proto4authNtB5_13LoginResponseNtNtCs6fErLjbU8QR_5prost7message7Message5clear
FN:11,_RNvXs8_NtNtNtNtCslypyrQYUkoG_7backend8features5login5proto4authNtB5_13LoginResponseNtNtCs4M45Py2ANNS_4core7default7Default7default
FN:19,_RNvXsd_NtNtNtNtCslypyrQYUkoG_7backend8features5login5proto4authNtB5_4UserNtNtCs6fErLjbU8QR_5prost7message7Message5clear
FN:19,_RNvXse_NtNtNtNtCslypyrQYUkoG_7backend8features5login5proto4authNtB5_4UserNtNtCs4M45Py2ANNS_4core7default7Default7default
FNDA:1,_RINvNvXsf_NtNtNtNtCslypyrQYUkoG_7backend8features5login5proto4authNtB8_4UserNtNtCs4M45Py2ANNS_4core3fmt5Debug3fmt13ScalarWrapperRxEBg_
FNDA:1,_RINvNvXsf_NtNtNtNtCslypyrQYUkoG_7backend8features5login5proto4authNtB8_4UserNtNtCs4M45Py2ANNS_4core3fmt5Debug3fmts0_13ScalarWrapperRNtNtCsdPcZrWPtBQZ_5alloc6string6StringEBg_
FNDA:1,_RINvNvXsf_NtNtNtNtCslypyrQYUkoG_7backend8features5login5proto4authNtB8_4UserNtNtCs4M45Py2ANNS_4core3fmt5Debug3fmts_13ScalarWrapperRNtNtCsdPcZrWPtBQZ_5alloc6string6StringEBg_
FNDA:0,_RINvMNtNtNtNtNtCslypyrQYUkoG_7backend8features5login5proto4auth19auth_service_clientINtB3_17AuthServiceClientNtNtNtCsjdrrDM8y1nq_5tonic9transport7channel7ChannelE7connectpEBd_
FNDA:0,_RINvMNtNtNtNtNtCslypyrQYUkoG_7backend8features5login5proto4auth19auth_service_serverINtB3_17AuthServiceServerpE16with_interceptorpEBd_
FNDA:0,_RINvMs_NtNtNtNtNtCslypyrQYUkoG_7backend8features5login5proto4auth19auth_service_clientINtB5_17AuthServiceClientpE16with_interceptorpEBf_
FNDA:0,_RINvMs_NtNtNtNtNtCslypyrQYUkoG_7backend8features5login5proto4auth19auth_service_clientINtB5_17AuthServiceClientpE5loginpEBf_
FNDA:0,_RINvNvXs3_NtNtNtNtCslypyrQYUkoG_7backend8features5login5proto4authNtB8_12LoginRequestNtNtCs4M45Py2ANNS_4core3fmt5Debug3fmt13ScalarWrapperpEBg_
FNDA:0,_RINvNvXs3_NtNtNtNtCslypyrQYUkoG_7backend8features5login5proto4authNtB8_12LoginRequestNtNtCs4M45Py2ANNS_4core3fmt5Debug3fmts_13ScalarWrapperpEBg_
FNDA:0,_RINvNvXs9_NtNtNtNtCslypyrQYUkoG_7backend8features5login5proto4authNtB8_13LoginResponseNtNtCs4M45Py2ANNS_4core3fmt5Debug3fmt13ScalarWrapperpEBg_
FNDA:0,_RNCINvMNtNtNtNtNtCslypyrQYUkoG_7backend8features5login5proto4auth19auth_service_clientINtB5_17AuthServiceClientNtNtNtCsjdrrDM8y1nq_5tonic9transport7channel7ChannelE7connectpE0Bf_
FNDA:0,_RNCINvMs_NtNtNtNtNtCslypyrQYUkoG_7backend8features5login5proto4auth19auth_service_clientINtB7_17AuthServiceClientpE5loginpE0Bh_
FNDA:0,_RNCINvXs1_NtNtNtNtCslypyrQYUkoG_7backend8features5login5proto4authNtB8_12LoginRequestNtNtCs6fErLjbU8QR_5prost7message7Message11merge_fieldpE0Bg_
FNDA:0,_RNCINvXs1_NtNtNtNtCslypyrQYUkoG_7backend8features5login5proto4authNtB8_12LoginRequestNtNtCs6fErLjbU8QR_5prost7message7Message11merge_fieldpEs_0Bg_
FNDA:0,_RNCINvXs7_NtNtNtNtCslypyrQYUkoG_7backend8features5login5proto4authNtB8_13LoginResponseNtNtCs6fErLjbU8QR_5prost7message7Message11merge_fieldpE0Bg_
FNDA:0,_RNCINvXs7_NtNtNtNtCslypyrQYUkoG_7backend8features5login5proto4authNtB8_13LoginResponseNtNtCs6fErLjbU8QR_5prost7message7Message11merge_fieldpEs_0Bg_
FNDA:0,_RNCINvXsd_NtNtNtNtCslypyrQYUkoG_7backend8features5login5proto4authNtB8_4UserNtNtCs6fErLjbU8QR_5prost7message7Message11merge_fieldpE0Bg_
FNDA:0,_RNCINvXsd_NtNtNtNtCslypyrQYUkoG_7backend8features5login5proto4authNtB8_4UserNtNtCs6fErLjbU8QR_5prost7message7Message11merge_fieldpEs0_0Bg_
FNDA:0,_RNCINvXsd_NtNtNtNtCslypyrQYUkoG_7backend8features5login5proto4authNtB8_4UserNtNtCs6fErLjbU8QR_5prost7message7Message11merge_fieldpEs_0Bg_
FNDA:0,_RNCNCINvMs_NtNtNtNtNtCslypyrQYUkoG_7backend8features5login5proto4auth19auth_service_clientINtB9_17AuthServiceClientpE5loginpE00Bj_
FNDA:0,_RNCNvXININtNtNtNtNtCslypyrQYUkoG_7backend8features5login5proto4auth19auth_service_servers_0ppEINtB7_17AuthServiceServerpEINtCs6eg6TmwSnRH_13tower_service7ServiceINtNtCskydy9tWmViu_4http7request7RequestpEE4call0Bh_
FNDA:0,_RNCNvXININtNtNtNtNtCslypyrQYUkoG_7backend8features5login5proto4auth19auth_service_servers_0ppEINtB7_17AuthServiceServerpEINtCs6eg6TmwSnRH_13tower_service7ServiceINtNtCskydy9tWmViu_4http7request7RequestpEE4calls_0Bh_
FNDA:0,_RNCNvXININvXs_NtNtNtNtNtCslypyrQYUkoG_7backend8features5login5proto4auth19auth_service_serverINtBc_17AuthServiceServerpEINtCs6eg6TmwSnRH_13tower_service7ServiceINtNtCskydy9tWmViu_4http7request7RequestpEE4call0pEINtB7_8LoginSvcpEINtNtNtCsjdrrDM8y1nq_5tonic6server7service12UnaryServiceNtBe_12LoginRequestE4call0Bm_
FNDA:0,_RNCNvXs7_NtNtNtNtCslypyrQYUkoG_7backend8features5login5proto4authNtB7_13LoginResponseNtNtCs6fErLjbU8QR_5prost7message7Message11encoded_len0Bf_
FNDA:0,_RNvMNtNtNtNtNtCslypyrQYUkoG_7backend8features5login5proto4auth19auth_service_serverINtB2_17AuthServiceServerpE15send_compressedBc_
FNDA:0,_RNvMNtNtNtNtNtCslypyrQYUkoG_7backend8features5login5proto4auth19auth_service_serverINtB2_17AuthServiceServerpE17accept_compressedBc_
FNDA:0,_RNvMNtNtNtNtNtCslypyrQYUkoG_7backend8features5login5proto4auth19auth_service_serverINtB2_17AuthServiceServerpE25max_decoding_message_sizeBc_
FNDA:0,_RNvMNtNtNtNtNtCslypyrQYUkoG_7backend8features5login5proto4auth19auth_service_serverINtB2_17AuthServiceServerpE25max_encoding_message_sizeBc_
FNDA:0,_RNvMNtNtNtNtNtCslypyrQYUkoG_7backend8features5login5proto4auth19auth_service_serverINtB2_17AuthServiceServerpE3newBc_
FNDA:0,_RNvMNtNtNtNtNtCslypyrQYUkoG_7backend8features5login5proto4auth19auth_service_serverINtB2_17AuthServiceServerpE8from_arcBc_
FNDA:0,_RNvMs_NtNtNtNtNtCslypyrQYUkoG_7backend8features5login5proto4auth19auth_service_clientINtB4_17AuthServiceClientpE11with_originBe_
FNDA:0,_RNvMs_NtNtNtNtNtCslypyrQYUkoG_7backend8features5login5proto4auth19auth_service_clientINtB4_17AuthServiceClientpE15send_compressedBe_
FNDA:0,_RNvMs_NtNtNtNtNtCslypyrQYUkoG_7backend8features5login5proto4auth19auth_service_clientINtB4_17AuthServiceClientpE17accept_compressedBe_
FNDA:0,_RNvMs_NtNtNtNtNtCslypyrQYUkoG_7backend8features5login5proto4auth19auth_service_clientINtB4_17AuthServiceClientpE25max_decoding_message_sizeBe_
FNDA:0,_RNvMs_NtNtNtNtNtCslypyrQYUkoG_7backend8features5login5proto4auth19auth_service_clientINtB4_17AuthServiceClientpE25max_encoding_message_sizeBe_
FNDA:0,_RNvMs_NtNtNtNtNtCslypyrQYUkoG_7backend8features5login5proto4auth19auth_service_clientINtB4_17AuthServiceClientpE3newBe_
FNDA:0,_RNvXININtNtNtNtNtCslypyrQYUkoG_7backend8features5login5proto4auth19auth_service_servers0_0pEINtB5_17AuthServiceServerpENtNtCs4M45Py2ANNS_4core5clone5Clone5cloneBf_
FNDA:0,_RNvXININtNtNtNtNtCslypyrQYUkoG_7backend8features5login5proto4auth19auth_service_servers1_0pEINtB5_6__InnerpENtNtCs4M45Py2ANNS_4core5clone5Clone5cloneBf_
FNDA:0,_RNvXININtNtNtNtNtCslypyrQYUkoG_7backend8features5login5proto4auth19auth_service_servers2_0pEINtB5_6__InnerpENtNtCs4M45Py2ANNS_4core3fmt5Debug3fmtBf_
FNDA:0,_RNvXININtNtNtNtNtCslypyrQYUkoG_7backend8features5login5proto4auth19auth_service_servers_0ppEINtB5_17AuthServiceServerpEINtCs6eg6TmwSnRH_13tower_service7ServiceINtNtCskydy9tWmViu_4http7request7RequestpEE10poll_readyBf_
FNDA:0,_RNvXININtNtNtNtNtCslypyrQYUkoG_7backend8features5login5proto4auth19auth_service_servers_0ppEINtB5_17AuthServiceServerpEINtCs6eg6TmwSnRH_13tower_service7ServiceINtNtCskydy9tWmViu_4http7request7RequestpEE4callBf_
FNDA:0,_RNvXININvXs_NtNtNtNtNtCslypyrQYUkoG_7backend8features5login5proto4auth19auth_service_serverINtBa_17AuthServiceServerpEINtCs6eg6TmwSnRH_13tower_service7ServiceINtNtCskydy9tWmViu_4http7request7RequestpEE4call0pEINtB5_8LoginSvcpEINtNtNtCsjdrrDM8y1nq_5tonic6server7service12UnaryServiceNtBc_12LoginRequestE4callBk_
FNDA:0,_RNvXs1_NtNtNtNtCslypyrQYUkoG_7backend8features5login5proto4authNtB5_12LoginRequestNtNtCs6fErLjbU8QR_5prost7message7Message5clear
FNDA:0,_RNvXs2_NtNtNtNtCslypyrQYUkoG_7backend8features5login5proto4authNtB5_12LoginRequestNtNtCs4M45Py2ANNS_4core7default7Default7default
FNDA:0,_RNvXs7_NtNtNtNtCslypyrQYUkoG_7backend8features5login5proto4authNtB5_13LoginResponseNtNtCs6fErLjbU8QR_5prost7message7Message5clear
FNDA:0,_RNvXs8_NtNtNtNtCslypyrQYUkoG_7backend8features5login5proto4authNtB5_13LoginResponseNtNtCs4M45Py2ANNS_4core7default7Default7default
FNDA:0,_RNvXsd_NtNtNtNtCslypyrQYUkoG_7backend8features5login5proto4authNtB5_4UserNtNtCs6fErLjbU8QR_5prost7message7Message5clear
FNDA:0,_RNvXse_NtNtNtNtCslypyrQYUkoG_7backend8features5login5proto4authNtB5_4UserNtNtCs4M45Py2ANNS_4core7default7Default7default
FNF:31
FNH:1
DA:3,0
DA:11,0
DA:19,3
DA:39,0
DA:40,0
DA:41,0
DA:42,0
DA:43,0
DA:44,0
DA:45,0
DA:46,0
DA:55,0
DA:56,0
DA:57,0
DA:58,0
DA:59,0
DA:60,0
DA:61,0
DA:62,0
DA:63,0
DA:64,0
DA:65,0
DA:66,0
DA:67,0
DA:68,0
DA:69,0
DA:70,0
DA:71,0
DA:72,0
DA:73,0
DA:74,0
DA:75,0
DA:76,0
DA:77,0
DA:78,0
DA:79,0
DA:80,0
DA:81,0
DA:87,0
DA:88,0
DA:89,0
DA:90,0
DA:93,0
DA:94,0
DA:95,0
DA:96,0
DA:101,0
DA:102,0
DA:103,0
DA:104,0
DA:109,0
DA:110,0
DA:111,0
DA:112,0
DA:113,0
DA:114,0
DA:115,0
DA:116,0
DA:117,0
DA:118,0
DA:119,0
DA:120,0
DA:121,0
DA:122,0
DA:123,0
DA:124,0
DA:125,0
DA:126,0
DA:127,0
DA:128,0
DA:129,0
DA:130,0
DA:131,0
DA:156,0
DA:157,0
DA:158,0
DA:159,0
DA:160,0
DA:161,0
DA:162,0
DA:163,0
DA:164,0
DA:165,0
DA:166,0
DA:167,0
DA:168,0
DA:169,0
DA:170,0
DA:171,0
DA:172,0
DA:173,0
DA:174,0
DA:175,0
DA:176,0
DA:177,0
DA:180,0
DA:181,0
DA:182,0
DA:183,0
DA:186,0
DA:187,0
DA:188,0
DA:189,0
DA:194,0
DA:195,0
DA:196,0
DA:197,0
DA:202,0
DA:203,0
DA:204,0
DA:205,0
DA:216,0
DA:217,0
DA:218,0
DA:219,0
DA:220,0
DA:221,0
DA:222,0
DA:223,0
DA:224,0
DA:225,0
DA:227,0
DA:228,0
DA:235,0
DA:236,0
DA:237,0
DA:238,0
DA:239,0
DA:240,0
DA:241,0
DA:242,0
DA:243,0
DA:244,0
DA:246,0
DA:247,0
DA:248,0
DA:249,0
DA:250,0
DA:251,0
DA:252,0
DA:253,0
DA:254,0
DA:255,0
DA:256,0
DA:257,0
DA:258,0
DA:259,0
DA:260,0
DA:261,0
DA:262,0
DA:263,0
DA:264,0
DA:265,0
DA:266,0
DA:267,0
DA:270,0
DA:271,0
DA:272,0
DA:273,0
DA:274,0
DA:275,0
DA:276,0
DA:277,0
DA:278,0
DA:279,0
DA:282,0
DA:285,0
DA:286,0
DA:287,0
DA:288,0
DA:289,0
DA:290,0
DA:291,0
DA:292,0
DA:293,0
DA:294,0
DA:297,0
DA:298,0
DA:299,0
DA:302,0
DA:303,0
DA:304,0
BRF:0
BRH:0
LF:190
LH:1
end_of_record
SF:C:\work\Sample\code\backend\src\features\login\repository.rs
FN:201,_RNCNvNtNtNtNtCslypyrQYUkoG_7backend8features5login10repository5testss_18test_logger_called0Bb_
FN:205,_RNCNvNtNtNtNtCslypyrQYUkoG_7backend8features5login10repository5testss_18test_logger_calleds_0Bb_
FN:211,_RNCNvNtNtNtNtCslypyrQYUkoG_7backend8features5login10repository5testss_22test_clone_logger_none0Bb_
FN:220,_RNCNvNtNtNtNtCslypyrQYUkoG_7backend8features5login10repository5testss_30test_find_by_username_db_error0Bb_
FN:233,_RNCNvNtNtNtNtCslypyrQYUkoG_7backend8features5login10repository5testss_31test_find_by_username_sql_error0Bb_
FN:146,_RNCNvNtNtNtNtCslypyrQYUkoG_7backend8features5login10repository5testss_47test_sqlite_user_repository_found_and_not_found0Bb_
FN:181,_RNvNtNtNtNtCslypyrQYUkoG_7backend8features5login10repository5testss_18test_logger_called
FN:210,_RNvNtNtNtNtCslypyrQYUkoG_7backend8features5login10repository5testss_22test_clone_logger_none
FN:156,_RNvNtNtNtNtCslypyrQYUkoG_7backend8features5login10repository5testss_23test_logger_none_branch
FN:108,_RNvNtNtNtNtCslypyrQYUkoG_7backend8features5login10repository5testss_27test_find_by_username_cases
FN:218,_RNvNtNtNtNtCslypyrQYUkoG_7backend8features5login10repository5testss_30test_find_by_username_db_error
FN:226,_RNvNtNtNtNtCslypyrQYUkoG_7backend8features5login10repository5testss_31test_find_by_username_sql_error
FN:125,_RNvNtNtNtNtCslypyrQYUkoG_7backend8features5login10repository5testss_47test_sqlite_user_repository_found_and_not_found
FN:38,_RNvMNtNtNtCslypyrQYUkoG_7backend8features5login10repositoryNtB2_20SqliteUserRepository3log
FN:23,_RNvMNtNtNtCslypyrQYUkoG_7backend8features5login10repositoryNtB2_20SqliteUserRepository3new
FN:56,_RNvXs0_NtNtNtCslypyrQYUkoG_7backend8features5login10repositoryNtB5_20SqliteUserRepositoryNtB5_14UserRepository16find_by_username
FN:86,_RNvXs1_NtNtNtCslypyrQYUkoG_7backend8features5login10repositoryNtB5_9DummyRepoNtB5_14UserRepository16find_by_username
FN:47,_RNvXs_NtNtNtCslypyrQYUkoG_7backend8features5login10repositoryNtB4_20SqliteUserRepositoryNtNtCs4M45Py2ANNS_4core5clone5Clone5clone
FN:29,_RINvMNtNtNtCslypyrQYUkoG_7backend8features5login10repositoryNtB3_20SqliteUserRepository11with_loggerNCNvNtB3_5testss_18test_logger_called0EB9_
FN:29,_RINvMNtNtNtCslypyrQYUkoG_7backend8features5login10repositoryNtB3_20SqliteUserRepository11with_loggerNCNvNtB3_5testss_22test_clone_logger_none0EB9_
FN:29,_RINvMNtNtNtCslypyrQYUkoG_7backend8features5login10repositoryNtB3_20SqliteUserRepository11with_loggerNCNvNtB3_5testss_30test_find_by_username_db_error0EB9_
FN:29,_RINvMNtNtNtCslypyrQYUkoG_7backend8features5login10repositoryNtB3_20SqliteUserRepository11with_loggerNCNvNtB3_5testss_31test_find_by_username_sql_error0EB9_
FN:29,_RINvMNtNtNtCslypyrQYUkoG_7backend8features5login10repositoryNtB3_20SqliteUserRepository11with_loggerNCNvNtB3_5testss_47test_sqlite_user_repository_found_and_not_found0EB9_
FN:65,_RNCNvXs0_NtNtNtCslypyrQYUkoG_7backend8features5login10repositoryNtB7_20SqliteUserRepositoryNtB7_14UserRepository16find_by_username0Bd_
FN:71,_RNCNvXs0_NtNtNtCslypyrQYUkoG_7backend8features5login10repositoryNtB7_20SqliteUserRepositoryNtB7_14UserRepository16find_by_usernames_0Bd_
FNDA:3,_RNCNvNtNtNtNtCslypyrQYUkoG_7backend8features5login10repository5testss_18test_logger_called0Bb_
FNDA:1,_RNCNvNtNtNtNtCslypyrQYUkoG_7backend8features5login10repository5testss_18test_logger_calleds_0Bb_
FNDA:0,_RNCNvNtNtNtNtCslypyrQYUkoG_7backend8features5login10repository5testss_22test_clone_logger_none0Bb_
FNDA:1,_RNCNvNtNtNtNtCslypyrQYUkoG_7backend8features5login10repository5testss_30test_find_by_username_db_error0Bb_
FNDA:2,_RNCNvNtNtNtNtCslypyrQYUkoG_7backend8features5login10repository5testss_31test_find_by_username_sql_error0Bb_
FNDA:6,_RNCNvNtNtNtNtCslypyrQYUkoG_7backend8features5login10repository5testss_47test_sqlite_user_repository_found_and_not_found0Bb_
FNDA:1,_RNvNtNtNtNtCslypyrQYUkoG_7backend8features5login10repository5testss_18test_logger_called
FNDA:1,_RNvNtNtNtNtCslypyrQYUkoG_7backend8features5login10repository5testss_22test_clone_logger_none
FNDA:1,_RNvNtNtNtNtCslypyrQYUkoG_7backend8features5login10repository5testss_23test_logger_none_branch
FNDA:1,_RNvNtNtNtNtCslypyrQYUkoG_7backend8features5login10repository5testss_27test_find_by_username_cases
FNDA:1,_RNvNtNtNtNtCslypyrQYUkoG_7backend8features5login10repository5testss_30test_find_by_username_db_error
FNDA:1,_RNvNtNtNtNtCslypyrQYUkoG_7backend8features5login10repository5testss_31test_find_by_username_sql_error
FNDA:1,_RNvNtNtNtNtCslypyrQYUkoG_7backend8features5login10repository5testss_47test_sqlite_user_repository_found_and_not_found
FNDA:22,_RNvMNtNtNtCslypyrQYUkoG_7backend8features5login10repositoryNtB2_20SqliteUserRepository3log
FNDA:4,_RNvMNtNtNtCslypyrQYUkoG_7backend8features5login10repositoryNtB2_20SqliteUserRepository3new
FNDA:9,_RNvXs0_NtNtNtCslypyrQYUkoG_7backend8features5login10repositoryNtB5_20SqliteUserRepositoryNtB5_14UserRepository16find_by_username
FNDA:7,_RNvXs1_NtNtNtCslypyrQYUkoG_7backend8features5login10repositoryNtB5_9DummyRepoNtB5_14UserRepository16find_by_username
FNDA:1,_RNvXs_NtNtNtCslypyrQYUkoG_7backend8features5login10repositoryNtB4_20SqliteUserRepositoryNtNtCs4M45Py2ANNS_4core5clone5Clone5clone
FNDA:1,_RINvMNtNtNtCslypyrQYUkoG_7backend8features5login10repositoryNtB3_20SqliteUserRepository11with_loggerNCNvNtB3_5testss_18test_logger_called0EB9_
FNDA:1,_RINvMNtNtNtCslypyrQYUkoG_7backend8features5login10repositoryNtB3_20SqliteUserRepository11with_loggerNCNvNtB3_5testss_22test_clone_logger_none0EB9_
FNDA:1,_RINvMNtNtNtCslypyrQYUkoG_7backend8features5login10repositoryNtB3_20SqliteUserRepository11with_loggerNCNvNtB3_5testss_30test_find_by_username_db_error0EB9_
FNDA:1,_RINvMNtNtNtCslypyrQYUkoG_7backend8features5login10repositoryNtB3_20SqliteUserRepository11with_loggerNCNvNtB3_5testss_31test_find_by_username_sql_error0EB9_
FNDA:1,_RINvMNtNtNtCslypyrQYUkoG_7backend8features5login10repositoryNtB3_20SqliteUserRepository11with_loggerNCNvNtB3_5testss_47test_sqlite_user_repository_found_and_not_found0EB9_
FNDA:5,_RNCNvXs0_NtNtNtCslypyrQYUkoG_7backend8features5login10repositoryNtB7_20SqliteUserRepositoryNtB7_14UserRepository16find_by_username0Bd_
FNDA:7,_RNCNvXs0_NtNtNtCslypyrQYUkoG_7backend8features5login10repositoryNtB7_20SqliteUserRepositoryNtB7_14UserRepository16find_by_usernames_0Bd_
FNF:21
FNH:20
DA:23,4
DA:24,4
DA:25,4
DA:26,4
DA:27,4
DA:28,4
DA:29,5
DA:30,5
DA:31,5
DA:32,5
DA:33,5
DA:34,5
DA:35,5
DA:36,5
DA:37,5
DA:38,22
DA:39,22
DA:40,12
DA:41,10
DA:43,22
DA:47,1
DA:48,1
DA:49,1
DA:50,1
DA:51,1
DA:52,1
DA:56,9
DA:57,9
DA:58,9
DA:59,7
DA:61,7
DA:62,7
DA:63,7
DA:64,7
DA:65,7
DA:66,5
DA:67,5
DA:68,5
DA:69,5
DA:70,7
DA:71,7
DA:72,7
DA:73,6
DA:74,5
DA:75,5
DA:77,1
DA:78,1
DA:80,9
DA:86,7
DA:87,7
DA:88,5
DA:89,5
DA:90,5
DA:91,5
DA:92,5
DA:93,5
DA:95,2
DA:97,7
DA:108,1
DA:109,1
DA:110,1
DA:111,1
DA:112,1
DA:113,1
DA:114,3
DA:115,2
DA:116,2
DA:117,1
DA:118,1
DA:119,0
DA:122,1
DA:125,1
DA:126,1
DA:127,1
DA:128,1
DA:129,1
DA:130,1
DA:131,1
DA:132,1
DA:133,1
DA:134,1
DA:135,1
DA:136,1
DA:137,1
DA:138,1
DA:139,1
DA:140,1
DA:141,1
DA:142,1
DA:143,1
DA:144,1
DA:145,1
DA:146,6
DA:147,1
DA:148,1
DA:149,1
DA:152,1
DA:153,1
DA:156,1
DA:157,1
DA:158,1
DA:159,1
DA:160,1
DA:161,1
DA:162,1
DA:163,1
DA:164,1
DA:165,1
DA:166,1
DA:167,1
DA:168,1
DA:169,1
DA:170,1
DA:171,1
DA:172,1
DA:173,1
DA:174,1
DA:175,1
DA:176,1
DA:177,1
DA:178,1
DA:181,1
DA:182,1
DA:183,1
DA:184,1
DA:185,1
DA:186,1
DA:187,1
DA:188,1
DA:189,1
DA:190,1
DA:191,1
DA:192,1
DA:193,1
DA:194,1
DA:195,1
DA:196,1
DA:197,1
DA:198,1
DA:199,1
DA:200,1
DA:201,3
DA:202,3
DA:203,3
DA:204,1
DA:205,1
DA:206,1
DA:207,1
DA:210,1
DA:211,1
DA:212,1
DA:213,1
DA:214,1
DA:215,1
DA:218,1
DA:219,1
DA:220,1
DA:221,1
DA:222,1
DA:223,1
DA:226,1
DA:227,1
DA:228,1
DA:229,1
DA:230,1
DA:231,1
DA:232,1
DA:233,2
DA:234,1
DA:235,1
DA:236,1
DA:237,1
BRF:0
BRH:0
LF:181
LH:179
end_of_record
SF:C:\work\Sample\code\backend\src\features\login\service.rs
FN:14,_RINvMNtNtNtCslypyrQYUkoG_7backend8features5login7serviceINtB3_12LoginServiceNtNtB3_5tests9ErrorRepoE11with_loggerNCNvB1e_s_28test_authenticate_repo_error0EB9_
FN:14,_RINvMNtNtNtCslypyrQYUkoG_7backend8features5login7serviceINtB3_12LoginServiceNtNtB5_10repository9DummyRepoE11with_loggerNCNvNtB3_5testss_18test_logger_called0EB9_
FN:14,_RINvMNtNtNtCslypyrQYUkoG_7backend8features5login7serviceINtB3_12LoginServiceNtNtB5_10repository9DummyRepoE11with_loggerNCNvNtB3_5testss_23test_authenticate_cases0EB9_
FN:14,_RINvMNtNtNtCslypyrQYUkoG_7backend8features5login7serviceINtB3_12LoginServiceNtNtNtB5_7handler5tests18TestUserRepositoryE11with_loggerNCNCNvB1e_s_16test_login_cases00EB9_
FN:14,_RINvMNtNtNtCslypyrQYUkoG_7backend8features5login7serviceINtB3_12LoginServiceNtNtNtB5_7handler5tests18TestUserRepositoryE11with_loggerNCNCNvB1e_s_27test_clone_and_error_branch00EB9_
FN:27,_RNvMNtNtNtCslypyrQYUkoG_7backend8features5login7serviceINtB2_12LoginServiceNtNtB2_5tests9ErrorRepoE12authenticateB8_
FN:20,_RNvMNtNtNtCslypyrQYUkoG_7backend8features5login7serviceINtB2_12LoginServiceNtNtB2_5tests9ErrorRepoE3logB8_
FN:27,_RNvMNtNtNtCslypyrQYUkoG_7backend8features5login7serviceINtB2_12LoginServiceNtNtB4_10repository20SqliteUserRepositoryE12authenticateB8_
FN:20,_RNvMNtNtNtCslypyrQYUkoG_7backend8features5login7serviceINtB2_12LoginServiceNtNtB4_10repository20SqliteUserRepositoryE3logB8_
FN:11,_RNvMNtNtNtCslypyrQYUkoG_7backend8features5login7serviceINtB2_12LoginServiceNtNtB4_10repository20SqliteUserRepositoryE3newB8_
FN:27,_RNvMNtNtNtCslypyrQYUkoG_7backend8features5login7serviceINtB2_12LoginServiceNtNtB4_10repository9DummyRepoE12authenticateB8_
FN:20,_RNvMNtNtNtCslypyrQYUkoG_7backend8features5login7serviceINtB2_12LoginServiceNtNtB4_10repository9DummyRepoE3logB8_
FN:11,_RNvMNtNtNtCslypyrQYUkoG_7backend8features5login7serviceINtB2_12LoginServiceNtNtB4_10repository9DummyRepoE3newB8_
FN:27,_RNvMNtNtNtCslypyrQYUkoG_7backend8features5login7serviceINtB2_12LoginServiceNtNtNtB4_7handler5tests18TestUserRepositoryE12authenticateB8_
FN:20,_RNvMNtNtNtCslypyrQYUkoG_7backend8features5login7serviceINtB2_12LoginServiceNtNtNtB4_7handler5tests18TestUserRepositoryE3logB8_
FN:83,_RNCNvNtNtNtNtCslypyrQYUkoG_7backend8features5login7service5testss_18test_logger_called0Bb_
FN:87,_RNCNvNtNtNtNtCslypyrQYUkoG_7backend8features5login7service5testss_18test_logger_calleds_0Bb_
FN:55,_RNCNvNtNtNtNtCslypyrQYUkoG_7backend8features5login7service5testss_23test_authenticate_cases0Bb_
FN:99,_RNCNvNtNtNtNtCslypyrQYUkoG_7backend8features5login7service5testss_28test_authenticate_repo_error0Bb_
FN:79,_RNvNtNtNtNtCslypyrQYUkoG_7backend8features5login7service5testss_18test_logger_called
FN:54,_RNvNtNtNtNtCslypyrQYUkoG_7backend8features5login7service5testss_23test_authenticate_cases
FN:71,_RNvNtNtNtNtCslypyrQYUkoG_7backend8features5login7service5testss_23test_logger_none_branch
FN:98,_RNvNtNtNtNtCslypyrQYUkoG_7backend8features5login7service5testss_28test_authenticate_repo_error
FN:92,_RNvXNtNtNtNtCslypyrQYUkoG_7backend8features5login7service5testsNtB2_9ErrorRepoNtNtB6_10repository14UserRepository16find_by_username
FNDA:1,_RINvMNtNtNtCslypyrQYUkoG_7backend8features5login7serviceINtB3_12LoginServiceNtNtB3_5tests9ErrorRepoE11with_loggerNCNvB1e_s_28test_authenticate_repo_error0EB9_
FNDA:1,_RINvMNtNtNtCslypyrQYUkoG_7backend8features5login7serviceINtB3_12LoginServiceNtNtB5_10repository9DummyRepoE11with_loggerNCNvNtB3_5testss_18test_logger_called0EB9_
FNDA:1,_RINvMNtNtNtCslypyrQYUkoG_7backend8features5login7serviceINtB3_12LoginServiceNtNtB5_10repository9DummyRepoE11with_loggerNCNvNtB3_5testss_23test_authenticate_cases0EB9_
FNDA:1,_RINvMNtNtNtCslypyrQYUkoG_7backend8features5login7serviceINtB3_12LoginServiceNtNtNtB5_7handler5tests18TestUserRepositoryE11with_loggerNCNCNvB1e_s_16test_login_cases00EB9_
FNDA:1,_RINvMNtNtNtCslypyrQYUkoG_7backend8features5login7serviceINtB3_12LoginServiceNtNtNtB5_7handler5tests18TestUserRepositoryE11with_loggerNCNCNvB1e_s_27test_clone_and_error_branch00EB9_
FNDA:1,_RNvMNtNtNtCslypyrQYUkoG_7backend8features5login7serviceINtB2_12LoginServiceNtNtB2_5tests9ErrorRepoE12authenticateB8_
FNDA:1,_RNvMNtNtNtCslypyrQYUkoG_7backend8features5login7serviceINtB2_12LoginServiceNtNtB2_5tests9ErrorRepoE3logB8_
FNDA:3,_RNvMNtNtNtCslypyrQYUkoG_7backend8features5login7serviceINtB2_12LoginServiceNtNtB4_10repository20SqliteUserRepositoryE12authenticateB8_
FNDA:7,_RNvMNtNtNtCslypyrQYUkoG_7backend8features5login7serviceINtB2_12LoginServiceNtNtB4_10repository20SqliteUserRepositoryE3logB8_
FNDA:3,_RNvMNtNtNtCslypyrQYUkoG_7backend8features5login7serviceINtB2_12LoginServiceNtNtB4_10repository20SqliteUserRepositoryE3newB8_
FNDA:5,_RNvMNtNtNtCslypyrQYUkoG_7backend8features5login7serviceINtB2_12LoginServiceNtNtB4_10repository9DummyRepoE12authenticateB8_
FNDA:14,_RNvMNtNtNtCslypyrQYUkoG_7backend8features5login7serviceINtB2_12LoginServiceNtNtB4_10repository9DummyRepoE3logB8_
FNDA:1,_RNvMNtNtNtCslypyrQYUkoG_7backend8features5login7serviceINtB2_12LoginServiceNtNtB4_10repository9DummyRepoE3newB8_
FNDA:4,_RNvMNtNtNtCslypyrQYUkoG_7backend8features5login7serviceINtB2_12LoginServiceNtNtNtB4_7handler5tests18TestUserRepositoryE12authenticateB8_
FNDA:10,_RNvMNtNtNtCslypyrQYUkoG_7backend8features5login7serviceINtB2_12LoginServiceNtNtNtB4_7handler5tests18TestUserRepositoryE3logB8_
FNDA:3,_RNCNvNtNtNtNtCslypyrQYUkoG_7backend8features5login7service5testss_18test_logger_called0Bb_
FNDA:1,_RNCNvNtNtNtNtCslypyrQYUkoG_7backend8features5login7service5testss_18test_logger_calleds_0Bb_
FNDA:8,_RNCNvNtNtNtNtCslypyrQYUkoG_7backend8features5login7service5testss_23test_authenticate_cases0Bb_
FNDA:1,_RNCNvNtNtNtNtCslypyrQYUkoG_7backend8features5login7service5testss_28test_authenticate_repo_error0Bb_
FNDA:1,_RNvNtNtNtNtCslypyrQYUkoG_7backend8features5login7service5testss_18test_logger_called
FNDA:1,_RNvNtNtNtNtCslypyrQYUkoG_7backend8features5login7service5testss_23test_authenticate_cases
FNDA:1,_RNvNtNtNtNtCslypyrQYUkoG_7backend8features5login7service5testss_23test_logger_none_branch
FNDA:1,_RNvNtNtNtNtCslypyrQYUkoG_7backend8features5login7service5testss_28test_authenticate_repo_error
FNDA:1,_RNvXNtNtNtNtCslypyrQYUkoG_7backend8features5login7service5testsNtB2_9ErrorRepoNtNtB6_10repository14UserRepository16find_by_username
FNF:13
FNH:13
DA:11,4
DA:12,4
DA:13,4
DA:14,5
DA:15,5
DA:16,5
DA:17,5
DA:18,5
DA:19,5
DA:20,32
DA:21,32
DA:22,22
DA:23,10
DA:25,32
DA:27,13
DA:28,13
DA:29,13
DA:30,11
DA:31,8
DA:32,8
DA:33,5
DA:34,5
DA:36,3
DA:37,3
DA:40,3
DA:41,3
DA:43,13
DA:54,1
DA:55,8
DA:56,1
DA:57,1
DA:58,1
DA:59,1
DA:60,1
DA:61,4
DA:62,3
DA:63,3
DA:64,3
DA:65,2
DA:66,1
DA:68,1
DA:71,1
DA:72,1
DA:73,1
DA:74,1
DA:75,1
DA:76,1
DA:79,1
DA:80,1
DA:81,1
DA:82,1
DA:83,3
DA:84,3
DA:85,3
DA:86,1
DA:87,1
DA:88,1
DA:92,1
DA:93,1
DA:94,1
DA:98,1
DA:99,1
DA:100,1
DA:101,1
DA:102,1
DA:103,1
BRF:0
BRH:0
LF:71
LH:71
end_of_record
SF:C:\work\Sample\code\backend\src\main.rs
FN:71,_RNCNvNtCslypyrQYUkoG_7backend5testss_21test_run_server_error0B5_
FN:55,_RNvNtCslypyrQYUkoG_7backend5testss_15test_cors_layer
FN:71,_RNvNtCslypyrQYUkoG_7backend5testss_21test_run_server_error
FN:49,_RNvNtCslypyrQYUkoG_7backend5testss_26test_auth_service_impl_new
FN:64,_RNvNtCslypyrQYUkoG_7backend5testss_28test_build_server_components
FN:33,_RNvCslypyrQYUkoG_7backend23build_server_components
FN:16,_RNCNvCslypyrQYUkoG_7backend10run_server0B3_
FN:11,_RNCNvCslypyrQYUkoG_7backend4main0B3_
FN:16,_RNvCslypyrQYUkoG_7backend10run_server
FN:11,_RNvCslypyrQYUkoG_7backend4main
FNDA:1,_RNCNvNtCslypyrQYUkoG_7backend5testss_21test_run_server_error0B5_
FNDA:1,_RNvNtCslypyrQYUkoG_7backend5testss_15test_cors_layer
FNDA:1,_RNvNtCslypyrQYUkoG_7backend5testss_21test_run_server_error
FNDA:1,_RNvNtCslypyrQYUkoG_7backend5testss_26test_auth_service_impl_new
FNDA:1,_RNvNtCslypyrQYUkoG_7backend5testss_28test_build_server_components
FNDA:1,_RNvCslypyrQYUkoG_7backend23build_server_components
FNDA:0,_RNCNvCslypyrQYUkoG_7backend10run_server0B3_
FNDA:0,_RNCNvCslypyrQYUkoG_7backend4main0B3_
FNDA:0,_RNvCslypyrQYUkoG_7backend10run_server
FNDA:0,_RNvCslypyrQYUkoG_7backend4main
FNF:10
FNH:6
DA:11,0
DA:12,0
DA:13,0
DA:16,0
DA:17,0
DA:18,0
DA:19,0
DA:20,0
DA:21,0
DA:22,0
DA:23,0
DA:24,0
DA:25,0
DA:26,0
DA:27,0
DA:28,0
DA:29,0
DA:30,0
DA:33,1
DA:34,1
DA:35,1
DA:36,1
DA:37,1
DA:38,1
DA:39,1
DA:40,1
DA:49,1
DA:50,1
DA:51,1
DA:52,1
DA:55,1
DA:56,1
DA:57,1
DA:58,1
DA:59,1
DA:60,1
DA:61,1
DA:64,1
DA:65,1
DA:66,1
DA:67,1
DA:68,1
DA:71,1
DA:72,1
DA:73,1
DA:74,1
DA:75,1
BRF:0
BRH:0
LF:54
LH:33
end_of_record